target datalayout = "e-m:e-p270:32:32-p271:32:32-p272:64:64-i64:64-i128:128-f80:128-n8:16:32:64-S128"
target triple = "x86_64-pc-linux-gnu"

%struct.PJconsts = type <{ ptr, ptr, ptr, ptr, ptr, ptr, ptr, ptr, ptr, ptr, ptr, ptr, i32, [4 x i8], ptr, ptr, ptr, ptr, ptr, ptr, ptr, ptr, double, double, double, double, double, double, double, double, double, double, double, double, double, double, double, double, double, double, double, double, double, double, i32, i32, i32, i32, i32, i32, i32, i32, i32, i32, i32, [4 x i8], ptr, ptr, ptr, ptr, ptr, ptr, double, double, double, double, double, double, double, double, double, double, double, i32, [4 x i8], [7 x double], i32, [4 x i8], ptr, ptr, double, double, i32, [4 x i8], %"class.std::shared_ptr", i8, [7 x i8], double, i8, [7 x i8], %"class.std::__cxx11::basic_string", %"class.std::__cxx11::basic_string", %"class.std::__cxx11::basic_string", i8, [7 x i8], %"class.std::vector", i32, [4 x i8], %"class.std::vector.3", i32, i8, i8, i8, i8 }>
%"class.std::shared_ptr" = type { %"class.std::__shared_ptr" }
%"class.std::__shared_ptr" = type { ptr, %"class.std::__shared_count" }
%"class.std::__shared_count" = type { ptr }
%"class.std::__cxx11::basic_string" = type { %"struct.std::__cxx11::basic_string<char>::_Alloc_hider", i64, %union.anon }
%"struct.std::__cxx11::basic_string<char>::_Alloc_hider" = type { ptr }
%union.anon = type { i64, [8 x i8] }
%"class.std::vector" = type { %"struct.std::_Vector_base" }
%"struct.std::_Vector_base" = type { %"struct.std::_Vector_base<osgeo::proj::operation::GridDescription, std::allocator<osgeo::proj::operation::GridDescription>>::_Vector_impl" }
%"struct.std::_Vector_base<osgeo::proj::operation::GridDescription, std::allocator<osgeo::proj::operation::GridDescription>>::_Vector_impl" = type { %"struct.std::_Vector_base<osgeo::proj::operation::GridDescription, std::allocator<osgeo::proj::operation::GridDescription>>::_Vector_impl_data" }
%"struct.std::_Vector_base<osgeo::proj::operation::GridDescription, std::allocator<osgeo::proj::operation::GridDescription>>::_Vector_impl_data" = type { ptr, ptr, ptr }
%"class.std::vector.3" = type { %"struct.std::_Vector_base.4" }
%"struct.std::_Vector_base.4" = type { %"struct.std::_Vector_base<PJCoordOperation, std::allocator<PJCoordOperation>>::_Vector_impl" }
%"struct.std::_Vector_base<PJCoordOperation, std::allocator<PJCoordOperation>>::_Vector_impl" = type { %"struct.std::_Vector_base<PJCoordOperation, std::allocator<PJCoordOperation>>::_Vector_impl_data" }
%"struct.std::_Vector_base<PJCoordOperation, std::allocator<PJCoordOperation>>::_Vector_impl_data" = type { ptr, ptr, ptr }
%struct.PJ_XY = type { double, double }
%struct.PJ_LP = type { double, double }

@_ZL9des_denoy = internal constant [43 x i8] c"Denoyer Semi-Elliptical\0A\09PCyl, no inv, Sph\00", align 16
@pj_s_denoy = hidden constant ptr @_ZL9des_denoy, align 8
@.str = private unnamed_addr constant [6 x i8] c"denoy\00", align 1

; Function Attrs: mustprogress uwtable
define hidden ptr @pj_denoy(ptr noundef %0) #0 {
  %2 = alloca ptr, align 8
  %3 = alloca ptr, align 8
  store ptr %0, ptr %3, align 8
  %4 = load ptr, ptr %3, align 8
  %5 = icmp ne ptr %4, null
  br i1 %5, label %6, label %9

6:                                                ; preds = %1
  %7 = load ptr, ptr %3, align 8
  %8 = call noundef ptr @_Z34pj_projection_specific_setup_denoyP8PJconsts(ptr noundef %7)
  store ptr %8, ptr %2, align 8
  br label %26

9:                                                ; preds = %1
  %10 = call noundef ptr @_Z6pj_newv()
  store ptr %10, ptr %3, align 8
  %11 = load ptr, ptr %3, align 8
  %12 = icmp eq ptr null, %11
  br i1 %12, label %13, label %14

13:                                               ; preds = %9
  store ptr null, ptr %2, align 8
  br label %26

14:                                               ; preds = %9
  %15 = load ptr, ptr %3, align 8
  %16 = getelementptr inbounds %struct.PJconsts, ptr %15, i32 0, i32 1
  store ptr @.str, ptr %16, align 8
  %17 = load ptr, ptr %3, align 8
  %18 = getelementptr inbounds %struct.PJconsts, ptr %17, i32 0, i32 2
  store ptr @_ZL9des_denoy, ptr %18, align 8
  %19 = load ptr, ptr %3, align 8
  %20 = getelementptr inbounds %struct.PJconsts, ptr %19, i32 0, i32 48
  store i32 1, ptr %20, align 8
  %21 = load ptr, ptr %3, align 8
  %22 = getelementptr inbounds %struct.PJconsts, ptr %21, i32 0, i32 53
  store i32 4, ptr %22, align 4
  %23 = load ptr, ptr %3, align 8
  %24 = getelementptr inbounds %struct.PJconsts, ptr %23, i32 0, i32 54
  store i32 1, ptr %24, align 8
  %25 = load ptr, ptr %3, align 8
  store ptr %25, ptr %2, align 8
  br label %26

26:                                               ; preds = %14, %13, %6
  %27 = load ptr, ptr %2, align 8
  ret ptr %27
}

; Function Attrs: mustprogress nounwind uwtable
define hidden noundef ptr @_Z34pj_projection_specific_setup_denoyP8PJconsts(ptr noundef %0) #1 {
  %2 = alloca ptr, align 8
  store ptr %0, ptr %2, align 8
  %3 = load ptr, ptr %2, align 8
  %4 = getelementptr inbounds %struct.PJconsts, ptr %3, i32 0, i32 28
  store double 0.000000e+00, ptr %4, align 8
  %5 = load ptr, ptr %2, align 8
  %6 = getelementptr inbounds %struct.PJconsts, ptr %5, i32 0, i32 14
  store ptr @_ZL15denoy_s_forward5PJ_LPP8PJconsts, ptr %6, align 8
  %7 = load ptr, ptr %2, align 8
  ret ptr %7
}

declare noundef ptr @_Z6pj_newv() #2

; Function Attrs: mustprogress nounwind uwtable
define internal { double, double } @_ZL15denoy_s_forward5PJ_LPP8PJconsts(double %0, double %1, ptr noundef %2) #1 {
  %4 = alloca %struct.PJ_XY, align 8
  %5 = alloca %struct.PJ_LP, align 8
  %6 = alloca ptr, align 8
  %7 = getelementptr inbounds { double, double }, ptr %5, i32 0, i32 0
  store double %0, ptr %7, align 8
  %8 = getelementptr inbounds { double, double }, ptr %5, i32 0, i32 1
  store double %1, ptr %8, align 8
  store ptr %2, ptr %6, align 8
  call void @llvm.memset.p0.i64(ptr align 8 %4, i8 0, i64 16, i1 false)
  %9 = getelementptr inbounds %struct.PJ_LP, ptr %5, i32 0, i32 1
  %10 = load double, ptr %9, align 8
  %11 = getelementptr inbounds %struct.PJ_XY, ptr %4, i32 0, i32 1
  store double %10, ptr %11, align 8
  %12 = getelementptr inbounds %struct.PJ_LP, ptr %5, i32 0, i32 0
  %13 = load double, ptr %12, align 8
  %14 = getelementptr inbounds %struct.PJ_XY, ptr %4, i32 0, i32 0
  store double %13, ptr %14, align 8
  %15 = getelementptr inbounds %struct.PJ_LP, ptr %5, i32 0, i32 0
  %16 = load double, ptr %15, align 8
  %17 = call double @llvm.fabs.f64(double %16)
  %18 = getelementptr inbounds %struct.PJ_LP, ptr %5, i32 0, i32 0
  store double %17, ptr %18, align 8
  %19 = getelementptr inbounds %struct.PJ_LP, ptr %5, i32 0, i32 0
  %20 = load double, ptr %19, align 8
  %21 = getelementptr inbounds %struct.PJ_LP, ptr %5, i32 0, i32 0
  %22 = load double, ptr %21, align 8
  %23 = getelementptr inbounds %struct.PJ_LP, ptr %5, i32 0, i32 0
  %24 = load double, ptr %23, align 8
  %25 = fmul double %22, %24
  %26 = call double @llvm.fmuladd.f64(double %25, double 0x3F5B4E81B4E81B4E, double 0xBFB5555555555555)
  %27 = call double @llvm.fmuladd.f64(double %20, double %26, double 0x3FEE666666666666)
  %28 = getelementptr inbounds %struct.PJ_LP, ptr %5, i32 0, i32 1
  %29 = load double, ptr %28, align 8
  %30 = getelementptr inbounds %struct.PJ_LP, ptr %5, i32 0, i32 1
  %31 = load double, ptr %30, align 8
  %32 = fmul double 3.000000e-02, %31
  %33 = getelementptr inbounds %struct.PJ_LP, ptr %5, i32 0, i32 1
  %34 = load double, ptr %33, align 8
  %35 = fmul double %32, %34
  %36 = getelementptr inbounds %struct.PJ_LP, ptr %5, i32 0, i32 1
  %37 = load double, ptr %36, align 8
  %38 = fmul double %35, %37
  %39 = getelementptr inbounds %struct.PJ_LP, ptr %5, i32 0, i32 1
  %40 = load double, ptr %39, align 8
  %41 = call double @llvm.fmuladd.f64(double %38, double %40, double 9.000000e-01)
  %42 = fmul double %29, %41
  %43 = fmul double %27, %42
  %44 = call double @cos(double noundef %43) #6
  %45 = getelementptr inbounds %struct.PJ_XY, ptr %4, i32 0, i32 0
  %46 = load double, ptr %45, align 8
  %47 = fmul double %46, %44
  store double %47, ptr %45, align 8
  %48 = load { double, double }, ptr %4, align 8
  ret { double, double } %48
}

; Function Attrs: nocallback nofree nounwind willreturn memory(argmem: write)
declare void @llvm.memset.p0.i64(ptr nocapture writeonly, i8, i64, i1 immarg) #3

; Function Attrs: nocallback nofree nosync nounwind speculatable willreturn memory(none)
declare double @llvm.fabs.f64(double) #4

; Function Attrs: nounwind
declare double @cos(double noundef) #5

; Function Attrs: nocallback nofree nosync nounwind speculatable willreturn memory(none)
declare double @llvm.fmuladd.f64(double, double, double) #4


!llvm.module.flags = !{!0, !1, !2, !3}

!0 = !{i32 1, !"wchar_size", i32 4}
!1 = !{i32 8, !"PIC Level", i32 2}
!2 = !{i32 7, !"uwtable", i32 2}
!3 = !{i32 7, !"frame-pointer", i32 2}
